target datalayout = "e-m:e-p270:32:32-p271:32:32-p272:64:64-i64:64-i128:128-f80:128-n8:16:32:64-S128"
target triple = "x86_64-pc-linux-gnu"

; Function Attrs: alwaysinline nounwind willreturn memory(none) uwtable
define internal zeroext i8 @av_clip_uint8_c(i32 noundef %0) #4 {
  %2 = alloca i8, align 1
  %3 = alloca i32, align 4
  store i32 %0, ptr %3, align 4, !tbaa !14
  %4 = load i32, ptr %3, align 4, !tbaa !14
  %5 = and i32 %4, -256
  %6 = icmp ne i32 %5, 0
  br i1 %6, label %7, label %12

7:                                                ; preds = %1
  %8 = load i32, ptr %3, align 4, !tbaa !14
  %9 = xor i32 %8, -1
  %10 = ashr i32 %9, 31
  %11 = trunc i32 %10 to i8
  store i8 %11, ptr %2, align 1
  br label %15

12:                                               ; preds = %1
  %13 = load i32, ptr %3, align 4, !tbaa !14
  %14 = trunc i32 %13 to i8
  store i8 %14, ptr %2, align 1
  br label %15

15:                                               ; preds = %12, %7
  %16 = load i8, ptr %2, align 1
  ret i8 %16
}

; Function Attrs: nounwind uwtable
define internal void @vp7_idct_add_c(ptr noundef %0, ptr noundef %1, i64 noundef %2) #1 {
  %4 = alloca ptr, align 8
  %5 = alloca ptr, align 8
  %6 = alloca i64, align 8
  %7 = alloca i32, align 4
  %8 = alloca i32, align 4
  %9 = alloca i32, align 4
  %10 = alloca i32, align 4
  %11 = alloca i32, align 4
  %12 = alloca [16 x i16], align 16
  store ptr %0, ptr %4, align 8, !tbaa !10
  store ptr %1, ptr %5, align 8, !tbaa !134
  store i64 %2, ptr %6, align 8, !tbaa !12
  call void @llvm.lifetime.start.p0(i64 4, ptr %7) #6
  call void @llvm.lifetime.start.p0(i64 4, ptr %8) #6
  call void @llvm.lifetime.start.p0(i64 4, ptr %9) #6
  call void @llvm.lifetime.start.p0(i64 4, ptr %10) #6
  call void @llvm.lifetime.start.p0(i64 4, ptr %11) #6
  call void @llvm.lifetime.start.p0(i64 32, ptr %12) #6
  store i32 0, ptr %7, align 4, !tbaa !14
  br label %13

13:                                               ; preds = %136, %3
  %14 = load i32, ptr %7, align 4, !tbaa !14
  %15 = icmp slt i32 %14, 4
  br i1 %15, label %16, label %139

16:                                               ; preds = %13
  %17 = load ptr, ptr %5, align 8, !tbaa !134
  %18 = load i32, ptr %7, align 4, !tbaa !14
  %19 = mul nsw i32 %18, 4
  %20 = add nsw i32 %19, 0
  %21 = sext i32 %20 to i64
  %22 = getelementptr inbounds i16, ptr %17, i64 %21
  %23 = load i16, ptr %22, align 2, !tbaa !136
  %24 = sext i16 %23 to i32
  %25 = load ptr, ptr %5, align 8, !tbaa !134
  %26 = load i32, ptr %7, align 4, !tbaa !14
  %27 = mul nsw i32 %26, 4
  %28 = add nsw i32 %27, 2
  %29 = sext i32 %28 to i64
  %30 = getelementptr inbounds i16, ptr %25, i64 %29
  %31 = load i16, ptr %30, align 2, !tbaa !136
  %32 = sext i16 %31 to i32
  %33 = add nsw i32 %24, %32
  %34 = mul nsw i32 %33, 23170
  store i32 %34, ptr %8, align 4, !tbaa !14
  %35 = load ptr, ptr %5, align 8, !tbaa !134
  %36 = load i32, ptr %7, align 4, !tbaa !14
  %37 = mul nsw i32 %36, 4
  %38 = add nsw i32 %37, 0
  %39 = sext i32 %38 to i64
  %40 = getelementptr inbounds i16, ptr %35, i64 %39
  %41 = load i16, ptr %40, align 2, !tbaa !136
  %42 = sext i16 %41 to i32
  %43 = load ptr, ptr %5, align 8, !tbaa !134
  %44 = load i32, ptr %7, align 4, !tbaa !14
  %45 = mul nsw i32 %44, 4
  %46 = add nsw i32 %45, 2
  %47 = sext i32 %46 to i64
  %48 = getelementptr inbounds i16, ptr %43, i64 %47
  %49 = load i16, ptr %48, align 2, !tbaa !136
  %50 = sext i16 %49 to i32
  %51 = sub nsw i32 %42, %50
  %52 = mul nsw i32 %51, 23170
  store i32 %52, ptr %9, align 4, !tbaa !14
  %53 = load ptr, ptr %5, align 8, !tbaa !134
  %54 = load i32, ptr %7, align 4, !tbaa !14
  %55 = mul nsw i32 %54, 4
  %56 = add nsw i32 %55, 1
  %57 = sext i32 %56 to i64
  %58 = getelementptr inbounds i16, ptr %53, i64 %57
  %59 = load i16, ptr %58, align 2, !tbaa !136
  %60 = sext i16 %59 to i32
  %61 = mul nsw i32 %60, 12540
  %62 = load ptr, ptr %5, align 8, !tbaa !134
  %63 = load i32, ptr %7, align 4, !tbaa !14
  %64 = mul nsw i32 %63, 4
  %65 = add nsw i32 %64, 3
  %66 = sext i32 %65 to i64
  %67 = getelementptr inbounds i16, ptr %62, i64 %66
  %68 = load i16, ptr %67, align 2, !tbaa !136
  %69 = sext i16 %68 to i32
  %70 = mul nsw i32 %69, 30274
  %71 = sub nsw i32 %61, %70
  store i32 %71, ptr %10, align 4, !tbaa !14
  %72 = load ptr, ptr %5, align 8, !tbaa !134
  %73 = load i32, ptr %7, align 4, !tbaa !14
  %74 = mul nsw i32 %73, 4
  %75 = add nsw i32 %74, 1
  %76 = sext i32 %75 to i64
  %77 = getelementptr inbounds i16, ptr %72, i64 %76
  %78 = load i16, ptr %77, align 2, !tbaa !136
  %79 = sext i16 %78 to i32
  %80 = mul nsw i32 %79, 30274
  %81 = load ptr, ptr %5, align 8, !tbaa !134
  %82 = load i32, ptr %7, align 4, !tbaa !14
  %83 = mul nsw i32 %82, 4
  %84 = add nsw i32 %83, 3
  %85 = sext i32 %84 to i64
  %86 = getelementptr inbounds i16, ptr %81, i64 %85
  %87 = load i16, ptr %86, align 2, !tbaa !136
  %88 = sext i16 %87 to i32
  %89 = mul nsw i32 %88, 12540
  %90 = add nsw i32 %80, %89
  store i32 %90, ptr %11, align 4, !tbaa !14
  %91 = load ptr, ptr %5, align 8, !tbaa !134
  %92 = load i32, ptr %7, align 4, !tbaa !14
  %93 = mul nsw i32 %92, 4
  %94 = sext i32 %93 to i64
  %95 = getelementptr inbounds i16, ptr %91, i64 %94
  store i64 0, ptr %95, align 8, !tbaa !18
  %96 = load i32, ptr %8, align 4, !tbaa !14
  %97 = load i32, ptr %11, align 4, !tbaa !14
  %98 = add i32 %96, %97
  %99 = ashr i32 %98, 14
  %100 = trunc i32 %99 to i16
  %101 = load i32, ptr %7, align 4, !tbaa !14
  %102 = mul nsw i32 %101, 4
  %103 = add nsw i32 %102, 0
  %104 = sext i32 %103 to i64
  %105 = getelementptr inbounds [16 x i16], ptr %12, i64 0, i64 %104
  store i16 %100, ptr %105, align 2, !tbaa !136
  %106 = load i32, ptr %8, align 4, !tbaa !14
  %107 = load i32, ptr %11, align 4, !tbaa !14
  %108 = sub i32 %106, %107
  %109 = ashr i32 %108, 14
  %110 = trunc i32 %109 to i16
  %111 = load i32, ptr %7, align 4, !tbaa !14
  %112 = mul nsw i32 %111, 4
  %113 = add nsw i32 %112, 3
  %114 = sext i32 %113 to i64
  %115 = getelementptr inbounds [16 x i16], ptr %12, i64 0, i64 %114
  store i16 %110, ptr %115, align 2, !tbaa !136
  %116 = load i32, ptr %9, align 4, !tbaa !14
  %117 = load i32, ptr %10, align 4, !tbaa !14
  %118 = add i32 %116, %117
  %119 = ashr i32 %118, 14
  %120 = trunc i32 %119 to i16
  %121 = load i32, ptr %7, align 4, !tbaa !14
  %122 = mul nsw i32 %121, 4
  %123 = add nsw i32 %122, 1
  %124 = sext i32 %123 to i64
  %125 = getelementptr inbounds [16 x i16], ptr %12, i64 0, i64 %124
  store i16 %120, ptr %125, align 2, !tbaa !136
  %126 = load i32, ptr %9, align 4, !tbaa !14
  %127 = load i32, ptr %10, align 4, !tbaa !14
  %128 = sub i32 %126, %127
  %129 = ashr i32 %128, 14
  %130 = trunc i32 %129 to i16
  %131 = load i32, ptr %7, align 4, !tbaa !14
  %132 = mul nsw i32 %131, 4
  %133 = add nsw i32 %132, 2
  %134 = sext i32 %133 to i64
  %135 = getelementptr inbounds [16 x i16], ptr %12, i64 0, i64 %134
  store i16 %130, ptr %135, align 2, !tbaa !136
  br label %136

136:                                              ; preds = %16
  %137 = load i32, ptr %7, align 4, !tbaa !14
  %138 = add nsw i32 %137, 1
  store i32 %138, ptr %7, align 4, !tbaa !14
  br label %13, !llvm.loop !141

139:                                              ; preds = %13
  store i32 0, ptr %7, align 4, !tbaa !14
  br label %140

140:                                              ; preds = %294, %139
  %141 = load i32, ptr %7, align 4, !tbaa !14
  %142 = icmp slt i32 %141, 4
  br i1 %142, label %143, label %297

143:                                              ; preds = %140
  %144 = load i32, ptr %7, align 4, !tbaa !14
  %145 = add nsw i32 %144, 0
  %146 = sext i32 %145 to i64
  %147 = getelementptr inbounds [16 x i16], ptr %12, i64 0, i64 %146
  %148 = load i16, ptr %147, align 2, !tbaa !136
  %149 = sext i16 %148 to i32
  %150 = load i32, ptr %7, align 4, !tbaa !14
  %151 = add nsw i32 %150, 8
  %152 = sext i32 %151 to i64
  %153 = getelementptr inbounds [16 x i16], ptr %12, i64 0, i64 %152
  %154 = load i16, ptr %153, align 2, !tbaa !136
  %155 = sext i16 %154 to i32
  %156 = add nsw i32 %149, %155
  %157 = mul nsw i32 %156, 23170
  store i32 %157, ptr %8, align 4, !tbaa !14
  %158 = load i32, ptr %7, align 4, !tbaa !14
  %159 = add nsw i32 %158, 0
  %160 = sext i32 %159 to i64
  %161 = getelementptr inbounds [16 x i16], ptr %12, i64 0, i64 %160
  %162 = load i16, ptr %161, align 2, !tbaa !136
  %163 = sext i16 %162 to i32
  %164 = load i32, ptr %7, align 4, !tbaa !14
  %165 = add nsw i32 %164, 8
  %166 = sext i32 %165 to i64
  %167 = getelementptr inbounds [16 x i16], ptr %12, i64 0, i64 %166
  %168 = load i16, ptr %167, align 2, !tbaa !136
  %169 = sext i16 %168 to i32
  %170 = sub nsw i32 %163, %169
  %171 = mul nsw i32 %170, 23170
  store i32 %171, ptr %9, align 4, !tbaa !14
  %172 = load i32, ptr %7, align 4, !tbaa !14
  %173 = add nsw i32 %172, 4
  %174 = sext i32 %173 to i64
  %175 = getelementptr inbounds [16 x i16], ptr %12, i64 0, i64 %174
  %176 = load i16, ptr %175, align 2, !tbaa !136
  %177 = sext i16 %176 to i32
  %178 = mul nsw i32 %177, 12540
  %179 = load i32, ptr %7, align 4, !tbaa !14
  %180 = add nsw i32 %179, 12
  %181 = sext i32 %180 to i64
  %182 = getelementptr inbounds [16 x i16], ptr %12, i64 0, i64 %181
  %183 = load i16, ptr %182, align 2, !tbaa !136
  %184 = sext i16 %183 to i32
  %185 = mul nsw i32 %184, 30274
  %186 = sub nsw i32 %178, %185
  store i32 %186, ptr %10, align 4, !tbaa !14
  %187 = load i32, ptr %7, align 4, !tbaa !14
  %188 = add nsw i32 %187, 4
  %189 = sext i32 %188 to i64
  %190 = getelementptr inbounds [16 x i16], ptr %12, i64 0, i64 %189
  %191 = load i16, ptr %190, align 2, !tbaa !136
  %192 = sext i16 %191 to i32
  %193 = mul nsw i32 %192, 30274
  %194 = load i32, ptr %7, align 4, !tbaa !14
  %195 = add nsw i32 %194, 12
  %196 = sext i32 %195 to i64
  %197 = getelementptr inbounds [16 x i16], ptr %12, i64 0, i64 %196
  %198 = load i16, ptr %197, align 2, !tbaa !136
  %199 = sext i16 %198 to i32
  %200 = mul nsw i32 %199, 12540
  %201 = add nsw i32 %193, %200
  store i32 %201, ptr %11, align 4, !tbaa !14
  %202 = load ptr, ptr %4, align 8, !tbaa !10
  %203 = load i64, ptr %6, align 8, !tbaa !12
  %204 = mul nsw i64 0, %203
  %205 = load i32, ptr %7, align 4, !tbaa !14
  %206 = sext i32 %205 to i64
  %207 = add nsw i64 %204, %206
  %208 = getelementptr inbounds i8, ptr %202, i64 %207
  %209 = load i8, ptr %208, align 1, !tbaa !18
  %210 = zext i8 %209 to i32
  %211 = load i32, ptr %8, align 4, !tbaa !14
  %212 = load i32, ptr %11, align 4, !tbaa !14
  %213 = add i32 %211, %212
  %214 = add i32 %213, 131072
  %215 = ashr i32 %214, 18
  %216 = add nsw i32 %210, %215
  %217 = call zeroext i8 @av_clip_uint8_c(i32 noundef %216) #7
  %218 = load ptr, ptr %4, align 8, !tbaa !10
  %219 = load i64, ptr %6, align 8, !tbaa !12
  %220 = mul nsw i64 0, %219
  %221 = load i32, ptr %7, align 4, !tbaa !14
  %222 = sext i32 %221 to i64
  %223 = add nsw i64 %220, %222
  %224 = getelementptr inbounds i8, ptr %218, i64 %223
  store i8 %217, ptr %224, align 1, !tbaa !18
  %225 = load ptr, ptr %4, align 8, !tbaa !10
  %226 = load i64, ptr %6, align 8, !tbaa !12
  %227 = mul nsw i64 3, %226
  %228 = load i32, ptr %7, align 4, !tbaa !14
  %229 = sext i32 %228 to i64
  %230 = add nsw i64 %227, %229
  %231 = getelementptr inbounds i8, ptr %225, i64 %230
  %232 = load i8, ptr %231, align 1, !tbaa !18
  %233 = zext i8 %232 to i32
  %234 = load i32, ptr %8, align 4, !tbaa !14
  %235 = load i32, ptr %11, align 4, !tbaa !14
  %236 = sub i32 %234, %235
  %237 = add i32 %236, 131072
  %238 = ashr i32 %237, 18
  %239 = add nsw i32 %233, %238
  %240 = call zeroext i8 @av_clip_uint8_c(i32 noundef %239) #7
  %241 = load ptr, ptr %4, align 8, !tbaa !10
  %242 = load i64, ptr %6, align 8, !tbaa !12
  %243 = mul nsw i64 3, %242
  %244 = load i32, ptr %7, align 4, !tbaa !14
  %245 = sext i32 %244 to i64
  %246 = add nsw i64 %243, %245
  %247 = getelementptr inbounds i8, ptr %241, i64 %246
  store i8 %240, ptr %247, align 1, !tbaa !18
  %248 = load ptr, ptr %4, align 8, !tbaa !10
  %249 = load i64, ptr %6, align 8, !tbaa !12
  %250 = mul nsw i64 1, %249
  %251 = load i32, ptr %7, align 4, !tbaa !14
  %252 = sext i32 %251 to i64
  %253 = add nsw i64 %250, %252
  %254 = getelementptr inbounds i8, ptr %248, i64 %253
  %255 = load i8, ptr %254, align 1, !tbaa !18
  %256 = zext i8 %255 to i32
  %257 = load i32, ptr %9, align 4, !tbaa !14
  %258 = load i32, ptr %10, align 4, !tbaa !14
  %259 = add i32 %257, %258
  %260 = add i32 %259, 131072
  %261 = ashr i32 %260, 18
  %262 = add nsw i32 %256, %261
  %263 = call zeroext i8 @av_clip_uint8_c(i32 noundef %262) #7
  %264 = load ptr, ptr %4, align 8, !tbaa !10
  %265 = load i64, ptr %6, align 8, !tbaa !12
  %266 = mul nsw i64 1, %265
  %267 = load i32, ptr %7, align 4, !tbaa !14
  %268 = sext i32 %267 to i64
  %269 = add nsw i64 %266, %268
  %270 = getelementptr inbounds i8, ptr %264, i64 %269
  store i8 %263, ptr %270, align 1, !tbaa !18
  %271 = load ptr, ptr %4, align 8, !tbaa !10
  %272 = load i64, ptr %6, align 8, !tbaa !12
  %273 = mul nsw i64 2, %272
  %274 = load i32, ptr %7, align 4, !tbaa !14
  %275 = sext i32 %274 to i64
  %276 = add nsw i64 %273, %275
  %277 = getelementptr inbounds i8, ptr %271, i64 %276
  %278 = load i8, ptr %277, align 1, !tbaa !18
  %279 = zext i8 %278 to i32
  %280 = load i32, ptr %9, align 4, !tbaa !14
  %281 = load i32, ptr %10, align 4, !tbaa !14
  %282 = sub i32 %280, %281
  %283 = add i32 %282, 131072
  %284 = ashr i32 %283, 18
  %285 = add nsw i32 %279, %284
  %286 = call zeroext i8 @av_clip_uint8_c(i32 noundef %285) #7
  %287 = load ptr, ptr %4, align 8, !tbaa !10
  %288 = load i64, ptr %6, align 8, !tbaa !12
  %289 = mul nsw i64 2, %288
  %290 = load i32, ptr %7, align 4, !tbaa !14
  %291 = sext i32 %290 to i64
  %292 = add nsw i64 %289, %291
  %293 = getelementptr inbounds i8, ptr %287, i64 %292
  store i8 %286, ptr %293, align 1, !tbaa !18
  br label %294

294:                                              ; preds = %143
  %295 = load i32, ptr %7, align 4, !tbaa !14
  %296 = add nsw i32 %295, 1
  store i32 %296, ptr %7, align 4, !tbaa !14
  br label %140, !llvm.loop !142

297:                                              ; preds = %140
  call void @llvm.lifetime.end.p0(i64 32, ptr %12) #6
  call void @llvm.lifetime.end.p0(i64 4, ptr %11) #6
  call void @llvm.lifetime.end.p0(i64 4, ptr %10) #6
  call void @llvm.lifetime.end.p0(i64 4, ptr %9) #6
  call void @llvm.lifetime.end.p0(i64 4, ptr %8) #6
  call void @llvm.lifetime.end.p0(i64 4, ptr %7) #6
  ret void
}