; Function Attrs: nofree norecurse nosync nounwind memory(argmem: readwrite) uwtable
define internal void @vp7_idct_add_c(ptr noundef captures(none) %0, ptr noundef captures(none) %1, i64 noundef %2) #1 {
  %4 = alloca [16 x i16], align 16
  call void @llvm.lifetime.start.p0(i64 32, ptr nonnull %4) #5
  br label %10

.preheader:                                       ; preds = %10
  %5 = mul nsw i64 %2, 3
  %6 = getelementptr i8, ptr %0, i64 %5
  %7 = getelementptr i8, ptr %0, i64 %2
  %8 = shl nsw i64 %2, 1
  %9 = getelementptr i8, ptr %0, i64 %8
  br label %52

10:                                               ; preds = %3, %10
  %indvars.iv = phi i64 [ 0, %3 ], [ %indvars.iv.next, %10 ]
  %11 = shl nuw nsw i64 %indvars.iv, 2
  %12 = getelementptr inbounds nuw i16, ptr %1, i64 %11
  %13 = load i16, ptr %12, align 2, !tbaa !126
  %14 = sext i16 %13 to i32
  %15 = or disjoint i64 %11, 2
  %16 = getelementptr inbounds nuw i16, ptr %1, i64 %15
  %17 = load i16, ptr %16, align 2, !tbaa !126
  %18 = sext i16 %17 to i32
  %19 = add nsw i32 %18, %14
  %20 = mul nsw i32 %19, 23170
  %21 = sub nsw i32 %14, %18
  %22 = mul nsw i32 %21, 23170
  %23 = or disjoint i64 %11, 1
  %24 = getelementptr inbounds nuw i16, ptr %1, i64 %23
  %25 = load i16, ptr %24, align 2, !tbaa !126
  %26 = sext i16 %25 to i32
  %27 = mul nsw i32 %26, 12540
  %28 = or disjoint i64 %11, 3
  %29 = getelementptr inbounds nuw i16, ptr %1, i64 %28
  %30 = load i16, ptr %29, align 2, !tbaa !126
  %31 = sext i16 %30 to i32
  %.neg73 = mul nsw i32 %31, -30274
  %32 = add nsw i32 %.neg73, %27
  %33 = mul nsw i32 %26, 30274
  %34 = mul nsw i32 %31, 12540
  %35 = add nsw i32 %34, %33
  store i64 0, ptr %12, align 8, !tbaa !10
  %36 = add i32 %35, %20
  %37 = lshr i32 %36, 14
  %38 = trunc i32 %37 to i16
  %39 = getelementptr inbounds nuw [16 x i16], ptr %4, i64 0, i64 %11
  store i16 %38, ptr %39, align 8, !tbaa !126
  %40 = sub i32 %20, %35
  %41 = lshr i32 %40, 14
  %42 = trunc i32 %41 to i16
  %43 = getelementptr inbounds nuw [16 x i16], ptr %4, i64 0, i64 %28
  store i16 %42, ptr %43, align 2, !tbaa !126
  %44 = add i32 %32, %22
  %45 = lshr i32 %44, 14
  %46 = trunc i32 %45 to i16
  %47 = getelementptr inbounds nuw [16 x i16], ptr %4, i64 0, i64 %23
  store i16 %46, ptr %47, align 2, !tbaa !126
  %48 = sub i32 %22, %32
  %49 = lshr i32 %48, 14
  %50 = trunc i32 %49 to i16
  %51 = getelementptr inbounds nuw [16 x i16], ptr %4, i64 0, i64 %15
  store i16 %50, ptr %51, align 4, !tbaa !126
  %indvars.iv.next = add nuw nsw i64 %indvars.iv, 1
  %exitcond.not = icmp eq i64 %indvars.iv.next, 4
  br i1 %exitcond.not, label %.preheader, label %10, !llvm.loop !131

52:                                               ; preds = %.preheader, %52
  %indvars.iv88 = phi i64 [ 0, %.preheader ], [ %indvars.iv.next89, %52 ]
  %53 = getelementptr inbounds nuw [16 x i16], ptr %4, i64 0, i64 %indvars.iv88
  %54 = load i16, ptr %53, align 2, !tbaa !126
  %55 = sext i16 %54 to i32
  %56 = or disjoint i64 %indvars.iv88, 8
  %57 = getelementptr inbounds nuw [16 x i16], ptr %4, i64 0, i64 %56
  %58 = load i16, ptr %57, align 2, !tbaa !126
  %59 = sext i16 %58 to i32
  %60 = add nsw i32 %59, %55
  %61 = mul nsw i32 %60, 23170
  %62 = sub nsw i32 %55, %59
  %63 = mul nsw i32 %62, 23170
  %64 = or disjoint i64 %indvars.iv88, 4
  %65 = getelementptr inbounds nuw [16 x i16], ptr %4, i64 0, i64 %64
  %66 = load i16, ptr %65, align 2, !tbaa !126
  %67 = sext i16 %66 to i32
  %68 = mul nsw i32 %67, 12540
  %69 = or disjoint i64 %indvars.iv88, 12
  %70 = getelementptr inbounds nuw [16 x i16], ptr %4, i64 0, i64 %69
  %71 = load i16, ptr %70, align 2, !tbaa !126
  %72 = sext i16 %71 to i32
  %.neg = mul nsw i32 %72, -30274
  %73 = add nsw i32 %.neg, %68
  %74 = mul nsw i32 %67, 30274
  %75 = mul nsw i32 %72, 12540
  %76 = add nsw i32 %75, %74
  %77 = getelementptr inbounds nuw i8, ptr %0, i64 %indvars.iv88
  %78 = load i8, ptr %77, align 1, !tbaa !10
  %79 = zext i8 %78 to i32
  %80 = add nsw i32 %61, 131072
  %81 = add i32 %80, %76
  %82 = ashr i32 %81, 18
  %83 = add nsw i32 %82, %79
  %.not.i = icmp ult i32 %83, 256
  %isnotneg.i = icmp sgt i32 %83, -1
  %84 = sext i1 %isnotneg.i to i8
  %85 = trunc nuw i32 %83 to i8
  %.0.i = select i1 %.not.i, i8 %85, i8 %84
  store i8 %.0.i, ptr %77, align 1, !tbaa !10
  %86 = getelementptr i8, ptr %6, i64 %indvars.iv88
  %87 = load i8, ptr %86, align 1, !tbaa !10
  %88 = zext i8 %87 to i32
  %89 = sub i32 %80, %76
  %90 = ashr i32 %89, 18
  %91 = add nsw i32 %90, %88
  %.not.i74 = icmp ult i32 %91, 256
  %isnotneg.i75 = icmp sgt i32 %91, -1
  %92 = sext i1 %isnotneg.i75 to i8
  %93 = trunc nuw i32 %91 to i8
  %.0.i76 = select i1 %.not.i74, i8 %93, i8 %92
  store i8 %.0.i76, ptr %86, align 1, !tbaa !10
  %94 = getelementptr i8, ptr %7, i64 %indvars.iv88
  %95 = load i8, ptr %94, align 1, !tbaa !10
  %96 = zext i8 %95 to i32
  %97 = add nsw i32 %63, 131072
  %98 = add i32 %97, %73
  %99 = ashr i32 %98, 18
  %100 = add nsw i32 %99, %96
  %.not.i77 = icmp ult i32 %100, 256
  %isnotneg.i78 = icmp sgt i32 %100, -1
  %101 = sext i1 %isnotneg.i78 to i8
  %102 = trunc nuw i32 %100 to i8
  %.0.i79 = select i1 %.not.i77, i8 %102, i8 %101
  store i8 %.0.i79, ptr %94, align 1, !tbaa !10
  %103 = getelementptr i8, ptr %9, i64 %indvars.iv88
  %104 = load i8, ptr %103, align 1, !tbaa !10
  %105 = zext i8 %104 to i32
  %106 = sub i32 %97, %73
  %107 = ashr i32 %106, 18
  %108 = add nsw i32 %107, %105
  %.not.i80 = icmp ult i32 %108, 256
  %isnotneg.i81 = icmp sgt i32 %108, -1
  %109 = sext i1 %isnotneg.i81 to i8
  %110 = trunc nuw i32 %108 to i8
  %.0.i82 = select i1 %.not.i80, i8 %110, i8 %109
  store i8 %.0.i82, ptr %103, align 1, !tbaa !10
  %indvars.iv.next89 = add nuw nsw i64 %indvars.iv88, 1
  %exitcond91.not = icmp eq i64 %indvars.iv.next89, 4
  br i1 %exitcond91.not, label %111, label %52, !llvm.loop !132

111:                                              ; preds = %52
  call void @llvm.lifetime.end.p0(i64 32, ptr nonnull %4) #5
  ret void
}